; Function Attrs: null_pointer_is_valid sspstrong uwtable
define internal range(i32 -268435456, 268435456) i32 @dissect_MulticastSessionUpdateResponse_PDU(ptr noundef %0, ptr noundef %1, ptr noundef %2, ptr readnone captures(none) %3) #0 {
  %5 = alloca %struct._asn1_ctx_t, align 8
  call void @llvm.lifetime.start.p0(i64 208, ptr nonnull %5) #12
  call void @asn1_ctx_init(ptr noundef nonnull %5, i32 noundef 1, i1 noundef zeroext true, ptr noundef %1)
  %6 = load i32, ptr @hf_ngap_MulticastSessionUpdateResponse_PDU, align 4
  %7 = call ptr @val_to_str_const(i32 noundef 59, ptr noundef nonnull @mtype_names, ptr noundef nonnull @.str.3482)
  %8 = getelementptr inbounds nuw i8, ptr %5, i64 16
  %9 = load ptr, ptr %8, align 8
  %10 = getelementptr inbounds nuw i8, ptr %9, i64 8
  %11 = load ptr, ptr %10, align 8
  call void @col_append_sep_str(ptr noundef %11, i32 noundef 25, ptr noundef null, ptr noundef %7)
  %12 = load ptr, ptr @top_tree, align 8
  call void (ptr, ptr, ...) @proto_item_append_text(ptr noundef %12, ptr noundef nonnull @.str.3479, ptr noundef %7)
  %13 = load ptr, ptr %8, align 8
  %14 = getelementptr inbounds nuw i8, ptr %13, i64 408
  %15 = load ptr, ptr %14, align 8
  %16 = load i32, ptr @proto_ngap, align 4
  %17 = call ptr @p_get_proto_data(ptr noundef %15, ptr noundef %13, i32 noundef %16, i32 noundef 0)
  %.not.i.i.i = icmp eq ptr %17, null
  br i1 %.not.i.i.i, label %18, label %dissect_ngap_MulticastSessionUpdateResponse.exit

18:                                               ; preds = %4
  %19 = load ptr, ptr %14, align 8
  %20 = call noalias dereferenceable_or_null(72) ptr @wmem_alloc0(ptr noundef %19, i64 noundef 72) #13
  %21 = getelementptr inbounds nuw i8, ptr %20, i64 24
  store i32 -1, ptr %21, align 8
  %22 = getelementptr inbounds nuw i8, ptr %20, i64 56
  store i8 -1, ptr %22, align 8
  %23 = load ptr, ptr %14, align 8
  %24 = load i32, ptr @proto_ngap, align 4
  call void @p_add_proto_data(ptr noundef %23, ptr noundef %13, i32 noundef %24, i32 noundef 0, ptr noundef %20)
  br label %dissect_ngap_MulticastSessionUpdateResponse.exit

dissect_ngap_MulticastSessionUpdateResponse.exit: ; preds = %4, %18
  %.0.i.i.i = phi ptr [ %17, %4 ], [ %20, %18 ]
  %25 = getelementptr inbounds nuw i8, ptr %.0.i.i.i, i64 64
  %26 = load ptr, ptr %25, align 8
  store i32 59, ptr %26, align 4
  %27 = load i32, ptr @ett_ngap_MulticastSessionUpdateResponse, align 4
  %28 = call i32 @dissect_per_sequence(ptr noundef %0, i32 noundef 0, ptr noundef nonnull %5, ptr noundef %2, i32 noundef %6, i32 noundef %27, ptr noundef nonnull @MulticastSessionUpdateResponse_sequence)
  %29 = add i32 %28, 7
  %30 = ashr i32 %29, 3
  call void @llvm.lifetime.end.p0(i64 208, ptr nonnull %5) #12
  ret i32 %30
}